; Function Attrs: mustprogress nofree norecurse nosync nounwind willreturn memory(argmem: readwrite) uwtable
define void @_ZN5ezSAT17preSolverCallbackEv(ptr noundef nonnull align 8 captures(none) dereferenceable(284) %0) local_unnamed_addr #4 align 2 {
  %2 = getelementptr inbounds nuw i8, ptr %0, i64 9
  %3 = load i8, ptr %2, align 1, !tbaa !55, !range !121, !noundef !122
  %4 = trunc nuw i8 %3 to i1
  br i1 %4, label %5, label %7

5:                                                ; preds = %1
  %6 = getelementptr inbounds nuw i8, ptr %0, i64 10
  store i8 1, ptr %6, align 2, !tbaa !56
  br label %7

7:                                                ; preds = %5, %1
  ret void
}